; ModuleID = '38/1636.cpp'
source_filename = "38/1636.cpp"
target datalayout = "e-m:e-p270:32:32-p271:32:32-p272:64:64-i64:64-f80:128-n8:16:32:64-S128"
target triple = "x86_64-pc-linux-gnu"

%"class.std::ios_base::Init" = type { i8 }
%"class.std::basic_istream" = type { i32 (...)**, i64, %"class.std::basic_ios" }
%"class.std::basic_ios" = type { %"class.std::ios_base", %"class.std::basic_ostream"*, i8, i8, %"class.std::basic_streambuf"*, %"class.std::ctype"*, %"class.std::num_put"*, %"class.std::num_get"* }
%"class.std::ios_base" = type { i32 (...)**, i64, i64, i32, i32, i32, %"struct.std::ios_base::_Callback_list"*, %"struct.std::ios_base::_Words", [8 x %"struct.std::ios_base::_Words"], i32, %"struct.std::ios_base::_Words"*, %"class.std::locale" }
%"struct.std::ios_base::_Callback_list" = type { %"struct.std::ios_base::_Callback_list"*, void (i32, %"class.std::ios_base"*, i32)*, i32, i32 }
%"struct.std::ios_base::_Words" = type { i8*, i64 }
%"class.std::locale" = type { %"class.std::locale::_Impl"* }
%"class.std::locale::_Impl" = type { i32, %"class.std::locale::facet"**, i64, %"class.std::locale::facet"**, i8** }
%"class.std::locale::facet" = type <{ i32 (...)**, i32, [4 x i8] }>
%"class.std::basic_ostream" = type { i32 (...)**, %"class.std::basic_ios" }
%"class.std::basic_streambuf" = type { i32 (...)**, i8*, i8*, i8*, i8*, i8*, i8*, %"class.std::locale" }
%"class.std::ctype" = type <{ %"class.std::locale::facet.base", [4 x i8], %struct.__locale_struct*, i8, [7 x i8], i32*, i32*, i16*, i8, [256 x i8], [256 x i8], i8, [6 x i8] }>
%"class.std::locale::facet.base" = type <{ i32 (...)**, i32 }>
%struct.__locale_struct = type { [13 x %struct.__locale_data*], i16*, i32*, i32*, [13 x i8*] }
%struct.__locale_data = type opaque
%"class.std::num_put" = type { %"class.std::locale::facet.base", [4 x i8] }
%"class.std::num_get" = type { %"class.std::locale::facet.base", [4 x i8] }

@_ZStL8__ioinit = internal global %"class.std::ios_base::Init" zeroinitializer, align 1
@__dso_handle = external hidden global i8
@_ZSt3cin = external dso_local global %"class.std::basic_istream", align 8
@.str = private unnamed_addr constant [6 x i8] c"%.5f\0A\00", align 1
@llvm.global_ctors = appending global [1 x { i32, void ()*, i8* }] [{ i32, void ()*, i8* } { i32 65535, void ()* @_GLOBAL__sub_I_1636.cpp, i8* null }]

; Function Attrs: noinline uwtable
define internal void @__cxx_global_var_init() #0 section ".text.startup" {
  call void @_ZNSt8ios_base4InitC1Ev(%"class.std::ios_base::Init"* @_ZStL8__ioinit)
  %1 = call i32 @__cxa_atexit(void (i8*)* bitcast (void (%"class.std::ios_base::Init"*)* @_ZNSt8ios_base4InitD1Ev to void (i8*)*), i8* getelementptr inbounds (%"class.std::ios_base::Init", %"class.std::ios_base::Init"* @_ZStL8__ioinit, i32 0, i32 0), i8* @__dso_handle) #3
  ret void
}

declare dso_local void @_ZNSt8ios_base4InitC1Ev(%"class.std::ios_base::Init"*) unnamed_addr #1

; Function Attrs: nounwind
declare dso_local void @_ZNSt8ios_base4InitD1Ev(%"class.std::ios_base::Init"*) unnamed_addr #2

; Function Attrs: nounwind
declare dso_local i32 @__cxa_atexit(void (i8*)*, i8*, i8*) #3

; Function Attrs: noinline norecurse uwtable
define dso_local i32 @main() #4 {
  %1 = alloca i32, align 4
  %2 = alloca i32, align 4
  %3 = alloca i32, align 4
  %4 = alloca i32, align 4
  %5 = alloca i32, align 4
  %6 = alloca i32, align 4
  %7 = alloca [100 x double], align 16
  %8 = alloca double, align 8
  %9 = alloca double, align 8
  %10 = alloca double, align 8
  %11 = alloca [100 x double], align 16
  store i32 0, i32* %1, align 4
  store i32 0, i32* %6, align 4
  %12 = bitcast [100 x double]* %7 to i8*
  call void @llvm.memset.p0i8.i64(i8* align 16 %12, i8 0, i64 800, i1 false)
  %13 = bitcast [100 x double]* %11 to i8*
  call void @llvm.memset.p0i8.i64(i8* align 16 %13, i8 0, i64 800, i1 false)
  %14 = call dereferenceable(280) %"class.std::basic_istream"* @_ZNSirsERi(%"class.std::basic_istream"* @_ZSt3cin, i32* dereferenceable(4) %2)
  %15 = load i32, i32* %2, align 4
  store i32 %15, i32* %4, align 4
  br label %16

16:                                               ; preds = %67, %0
  %17 = load i32, i32* %2, align 4
  %18 = icmp ne i32 %17, 0
  br i1 %18, label %19, label %81

19:                                               ; preds = %16
  store double 0.000000e+00, double* %8, align 8
  store double 0.000000e+00, double* %10, align 8
  %20 = call dereferenceable(280) %"class.std::basic_istream"* @_ZNSirsERi(%"class.std::basic_istream"* @_ZSt3cin, i32* dereferenceable(4) %3)
  store i32 0, i32* %5, align 4
  br label %21

21:                                               ; preds = %36, %19
  %22 = load i32, i32* %5, align 4
  %23 = load i32, i32* %3, align 4
  %24 = icmp slt i32 %22, %23
  br i1 %24, label %25, label %39

25:                                               ; preds = %21
  %26 = load i32, i32* %5, align 4
  %27 = sext i32 %26 to i64
  %28 = getelementptr inbounds [100 x double], [100 x double]* %7, i64 0, i64 %27
  %29 = call dereferenceable(280) %"class.std::basic_istream"* @_ZNSirsERd(%"class.std::basic_istream"* @_ZSt3cin, double* dereferenceable(8) %28)
  %30 = load i32, i32* %5, align 4
  %31 = sext i32 %30 to i64
  %32 = getelementptr inbounds [100 x double], [100 x double]* %7, i64 0, i64 %31
  %33 = load double, double* %32, align 8
  %34 = load double, double* %8, align 8
  %35 = fadd double %34, %33
  store double %35, double* %8, align 8
  br label %36

36:                                               ; preds = %25
  %37 = load i32, i32* %5, align 4
  %38 = add nsw i32 %37, 1
  store i32 %38, i32* %5, align 4
  br label %21

39:                                               ; preds = %21
  %40 = load double, double* %8, align 8
  %41 = load i32, i32* %3, align 4
  %42 = sitofp i32 %41 to double
  %43 = fdiv double %40, %42
  store double %43, double* %8, align 8
  store i32 0, i32* %5, align 4
  br label %44

44:                                               ; preds = %64, %39
  %45 = load i32, i32* %5, align 4
  %46 = load i32, i32* %3, align 4
  %47 = icmp slt i32 %45, %46
  br i1 %47, label %48, label %67

48:                                               ; preds = %44
  %49 = load i32, i32* %5, align 4
  %50 = sext i32 %49 to i64
  %51 = getelementptr inbounds [100 x double], [100 x double]* %7, i64 0, i64 %50
  %52 = load double, double* %51, align 8
  %53 = load double, double* %8, align 8
  %54 = fsub double %52, %53
  %55 = load i32, i32* %5, align 4
  %56 = sext i32 %55 to i64
  %57 = getelementptr inbounds [100 x double], [100 x double]* %7, i64 0, i64 %56
  %58 = load double, double* %57, align 8
  %59 = load double, double* %8, align 8
  %60 = fsub double %58, %59
  %61 = fmul double %54, %60
  %62 = load double, double* %10, align 8
  %63 = fadd double %62, %61
  store double %63, double* %10, align 8
  br label %64

64:                                               ; preds = %48
  %65 = load i32, i32* %5, align 4
  %66 = add nsw i32 %65, 1
  store i32 %66, i32* %5, align 4
  br label %44

67:                                               ; preds = %44
  %68 = load i32, i32* %3, align 4
  %69 = sitofp i32 %68 to double
  %70 = load double, double* %10, align 8
  %71 = fdiv double %70, %69
  store double %71, double* %10, align 8
  %72 = load double, double* %10, align 8
  %73 = call double @sqrt(double %72) #3
  %74 = load i32, i32* %6, align 4
  %75 = sext i32 %74 to i64
  %76 = getelementptr inbounds [100 x double], [100 x double]* %11, i64 0, i64 %75
  store double %73, double* %76, align 8
  %77 = load i32, i32* %6, align 4
  %78 = add nsw i32 %77, 1
  store i32 %78, i32* %6, align 4
  %79 = load i32, i32* %2, align 4
  %80 = add nsw i32 %79, -1
  store i32 %80, i32* %2, align 4
  br label %16

81:                                               ; preds = %16
  store i32 0, i32* %5, align 4
  br label %82

82:                                               ; preds = %92, %81
  %83 = load i32, i32* %5, align 4
  %84 = load i32, i32* %4, align 4
  %85 = icmp slt i32 %83, %84
  br i1 %85, label %86, label %95

86:                                               ; preds = %82
  %87 = load i32, i32* %5, align 4
  %88 = sext i32 %87 to i64
  %89 = getelementptr inbounds [100 x double], [100 x double]* %11, i64 0, i64 %88
  %90 = load double, double* %89, align 8
  %91 = call i32 (i8*, ...) @printf(i8* getelementptr inbounds ([6 x i8], [6 x i8]* @.str, i64 0, i64 0), double %90)
  br label %92

92:                                               ; preds = %86
  %93 = load i32, i32* %5, align 4
  %94 = add nsw i32 %93, 1
  store i32 %94, i32* %5, align 4
  br label %82

95:                                               ; preds = %82
  ret i32 0
}

; Function Attrs: argmemonly nounwind willreturn
declare void @llvm.memset.p0i8.i64(i8* nocapture writeonly, i8, i64, i1 immarg) #5

declare dso_local dereferenceable(280) %"class.std::basic_istream"* @_ZNSirsERi(%"class.std::basic_istream"*, i32* dereferenceable(4)) #1

declare dso_local dereferenceable(280) %"class.std::basic_istream"* @_ZNSirsERd(%"class.std::basic_istream"*, double* dereferenceable(8)) #1

; Function Attrs: nounwind
declare dso_local double @sqrt(double) #2

declare dso_local i32 @printf(i8*, ...) #1

; Function Attrs: noinline uwtable
define internal void @_GLOBAL__sub_I_1636.cpp() #0 section ".text.startup" {
  call void @__cxx_global_var_init()
  ret void
}


!llvm.module.flags = !{!0}
!llvm.ident = !{!1}

!0 = !{i32 1, !"wchar_size", i32 4}
!1 = !{!"clang version 10.0.0-4ubuntu1 "}
